target datalayout = "e-m:e-p270:32:32-p271:32:32-p272:64:64-i64:64-i128:128-f80:128-n8:16:32:64-S128"
target triple = "x86_64-pc-linux-gnu"

; Function Attrs: nounwind uwtable
define i64 @OPENSSL_strlcpy(ptr noundef %0, ptr noundef %1, i64 noundef %2) #0 {
  %4 = alloca ptr, align 8
  %5 = alloca ptr, align 8
  %6 = alloca i64, align 8
  %7 = alloca i64, align 8
  store ptr %0, ptr %4, align 8, !tbaa !3
  store ptr %1, ptr %5, align 8, !tbaa !3
  store i64 %2, ptr %6, align 8, !tbaa !10
  call void @llvm.lifetime.start.p0(i64 8, ptr %7) #8
  store i64 0, ptr %7, align 8, !tbaa !10
  br label %8

8:                                                ; preds = %26, %3
  %9 = load i64, ptr %6, align 8, !tbaa !10
  %10 = icmp ugt i64 %9, 1
  br i1 %10, label %11, label %16

11:                                               ; preds = %8
  %12 = load ptr, ptr %5, align 8, !tbaa !3
  %13 = load i8, ptr %12, align 1, !tbaa !12
  %14 = sext i8 %13 to i32
  %15 = icmp ne i32 %14, 0
  br label %16

16:                                               ; preds = %11, %8
  %17 = phi i1 [ false, %8 ], [ %15, %11 ]
  br i1 %17, label %18, label %29

18:                                               ; preds = %16
  %19 = load ptr, ptr %5, align 8, !tbaa !3
  %20 = getelementptr inbounds nuw i8, ptr %19, i32 1
  store ptr %20, ptr %5, align 8, !tbaa !3
  %21 = load i8, ptr %19, align 1, !tbaa !12
  %22 = load ptr, ptr %4, align 8, !tbaa !3
  %23 = getelementptr inbounds nuw i8, ptr %22, i32 1
  store ptr %23, ptr %4, align 8, !tbaa !3
  store i8 %21, ptr %22, align 1, !tbaa !12
  %24 = load i64, ptr %7, align 8, !tbaa !10
  %25 = add i64 %24, 1
  store i64 %25, ptr %7, align 8, !tbaa !10
  br label %26

26:                                               ; preds = %18
  %27 = load i64, ptr %6, align 8, !tbaa !10
  %28 = add i64 %27, -1
  store i64 %28, ptr %6, align 8, !tbaa !10
  br label %8, !llvm.loop !16

29:                                               ; preds = %16
  %30 = load i64, ptr %6, align 8, !tbaa !10
  %31 = icmp ne i64 %30, 0
  br i1 %31, label %32, label %34

32:                                               ; preds = %29
  %33 = load ptr, ptr %4, align 8, !tbaa !3
  store i8 0, ptr %33, align 1, !tbaa !12
  br label %34

34:                                               ; preds = %32, %29
  %35 = load i64, ptr %7, align 8, !tbaa !10
  %36 = load ptr, ptr %5, align 8, !tbaa !3
  %37 = call i64 @strlen(ptr noundef %36) #9
  %38 = add i64 %35, %37
  call void @llvm.lifetime.end.p0(i64 8, ptr %7) #8
  ret i64 %38
}