; Function Attrs: nofree nounwind memory(argmem: readwrite) uwtable
define i64 @OPENSSL_strlcpy(ptr noundef writeonly captures(none) %0, ptr noundef readonly captures(none) %1, i64 noundef %2) local_unnamed_addr #7 {
  %4 = icmp ugt i64 %2, 1
  br i1 %4, label %.lr.ph.preheader, label %.critedge

.lr.ph.preheader:                                 ; preds = %3
  %5 = add i64 %2, -1
  br label %.lr.ph

.lr.ph:                                           ; preds = %.lr.ph.preheader, %7
  %.026 = phi i64 [ %10, %7 ], [ 0, %.lr.ph.preheader ]
  %.01024 = phi ptr [ %8, %7 ], [ %1, %.lr.ph.preheader ]
  %.01123 = phi ptr [ %9, %7 ], [ %0, %.lr.ph.preheader ]
  %6 = load i8, ptr %.01024, align 1, !tbaa !3
  %.not = icmp eq i8 %6, 0
  br i1 %.not, label %.critedge.thread, label %7

7:                                                ; preds = %.lr.ph
  %8 = getelementptr inbounds nuw i8, ptr %.01024, i64 1
  %9 = getelementptr inbounds nuw i8, ptr %.01123, i64 1
  store i8 %6, ptr %.01123, align 1, !tbaa !3
  %10 = add nuw i64 %.026, 1
  %exitcond.not = icmp eq i64 %10, %5
  br i1 %exitcond.not, label %.critedge.thread, label %.lr.ph, !llvm.loop !8

.critedge:                                        ; preds = %3
  %.not12 = icmp eq i64 %2, 0
  br i1 %.not12, label %11, label %.critedge.thread

.critedge.thread:                                 ; preds = %7, %.lr.ph, %.critedge
  %.01122 = phi ptr [ %0, %.critedge ], [ %9, %7 ], [ %.01123, %.lr.ph ]
  %.01019 = phi ptr [ %1, %.critedge ], [ %8, %7 ], [ %.01024, %.lr.ph ]
  %.015 = phi i64 [ 0, %.critedge ], [ %5, %7 ], [ %.026, %.lr.ph ]
  store i8 0, ptr %.01122, align 1, !tbaa !3
  br label %11

11:                                               ; preds = %.critedge.thread, %.critedge
  %.01020 = phi ptr [ %.01019, %.critedge.thread ], [ %1, %.critedge ]
  %.016 = phi i64 [ %.015, %.critedge.thread ], [ 0, %.critedge ]
  %12 = tail call i64 @strlen(ptr noundef nonnull dereferenceable(1) %.01020) #15
  %13 = add i64 %12, %.016
  ret i64 %13
}